******************************************************************************
                  MSP430 Linker PC v3.3.1                      
******************************************************************************
>> Linked Thu Oct 21 23:15:15 2010

OUTPUT FILE NAME:   <ez430_chronos_datalogger_868MHz.out>
ENTRY POINT SYMBOL: "_c_int00"  address: 0000d4f0


MEMORY CONFIGURATION

         name            origin    length      used     unused   attr    fill
----------------------  --------  ---------  --------  --------  ----  --------
  SFR                   00000000   00000010  00000000  00000010  RWIX
  PERIPHERALS_8BIT      00000010   000000f0  00000000  000000f0  RWIX
  PERIPHERALS_16BIT     00000100   00000100  00000000  00000100  RWIX
  INFOD                 00001800   00000080  00000000  00000080  RWIX
  INFOC                 00001880   00000080  00000000  00000080  RWIX
  INFOB                 00001900   00000080  00000000  00000080  RWIX
  INFOA                 00001980   00000080  00000000  00000080  RWIX
  RAM                   00001c00   00000ffe  0000039d  00000c61  RWIX
  DATALOG_MEMORY        00008000   00001e00  00000000  00001e00  RWIX
  FLASH                 00009e00   00006180  000043aa  00001dd6  RWIX
  INT00                 0000ff80   00000002  00000000  00000002  RWIX
  INT01                 0000ff82   00000002  00000000  00000002  RWIX
  INT02                 0000ff84   00000002  00000000  00000002  RWIX
  INT03                 0000ff86   00000002  00000000  00000002  RWIX
  INT04                 0000ff88   00000002  00000000  00000002  RWIX
  INT05                 0000ff8a   00000002  00000000  00000002  RWIX
  INT06                 0000ff8c   00000002  00000000  00000002  RWIX
  INT07                 0000ff8e   00000002  00000000  00000002  RWIX
  INT08                 0000ff90   00000002  00000000  00000002  RWIX
  INT09                 0000ff92   00000002  00000000  00000002  RWIX
  INT10                 0000ff94   00000002  00000000  00000002  RWIX
  INT11                 0000ff96   00000002  00000000  00000002  RWIX
  INT12                 0000ff98   00000002  00000000  00000002  RWIX
  INT13                 0000ff9a   00000002  00000000  00000002  RWIX
  INT14                 0000ff9c   00000002  00000000  00000002  RWIX
  INT15                 0000ff9e   00000002  00000000  00000002  RWIX
  INT16                 0000ffa0   00000002  00000000  00000002  RWIX
  INT17                 0000ffa2   00000002  00000000  00000002  RWIX
  INT18                 0000ffa4   00000002  00000000  00000002  RWIX
  INT19                 0000ffa6   00000002  00000000  00000002  RWIX
  INT20                 0000ffa8   00000002  00000000  00000002  RWIX
  INT21                 0000ffaa   00000002  00000000  00000002  RWIX
  INT22                 0000ffac   00000002  00000000  00000002  RWIX
  INT23                 0000ffae   00000002  00000000  00000002  RWIX
  INT24                 0000ffb0   00000002  00000000  00000002  RWIX
  INT25                 0000ffb2   00000002  00000000  00000002  RWIX
  INT26                 0000ffb4   00000002  00000000  00000002  RWIX
  INT27                 0000ffb6   00000002  00000000  00000002  RWIX
  INT28                 0000ffb8   00000002  00000000  00000002  RWIX
  INT29                 0000ffba   00000002  00000000  00000002  RWIX
  INT30                 0000ffbc   00000002  00000000  00000002  RWIX
  INT31                 0000ffbe   00000002  00000000  00000002  RWIX
  INT32                 0000ffc0   00000002  00000000  00000002  RWIX
  INT33                 0000ffc2   00000002  00000000  00000002  RWIX
  INT34                 0000ffc4   00000002  00000000  00000002  RWIX
  INT35                 0000ffc6   00000002  00000000  00000002  RWIX
  INT36                 0000ffc8   00000002  00000000  00000002  RWIX
  INT37                 0000ffca   00000002  00000000  00000002  RWIX
  INT38                 0000ffcc   00000002  00000000  00000002  RWIX
  INT39                 0000ffce   00000002  00000000  00000002  RWIX
  INT40                 0000ffd0   00000002  00000000  00000002  RWIX
  INT41                 0000ffd2   00000002  00000000  00000002  RWIX
  INT42                 0000ffd4   00000002  00000000  00000002  RWIX
  INT43                 0000ffd6   00000002  00000000  00000002  RWIX
  INT44                 0000ffd8   00000002  00000000  00000002  RWIX
  INT45                 0000ffda   00000002  00000000  00000002  RWIX
  INT46                 0000ffdc   00000002  00000000  00000002  RWIX
  INT47                 0000ffde   00000002  00000000  00000002  RWIX
  INT48                 0000ffe0   00000002  00000002  00000000  RWIX
  INT49                 0000ffe2   00000002  00000000  00000002  RWIX
  INT50                 0000ffe4   00000002  00000000  00000002  RWIX
  INT51                 0000ffe6   00000002  00000000  00000002  RWIX
  INT52                 0000ffe8   00000002  00000000  00000002  RWIX
  INT53                 0000ffea   00000002  00000002  00000000  RWIX
  INT54                 0000ffec   00000002  00000002  00000000  RWIX
  INT55                 0000ffee   00000002  00000002  00000000  RWIX
  INT56                 0000fff0   00000002  00000002  00000000  RWIX
  INT57                 0000fff2   00000002  00000000  00000002  RWIX
  INT58                 0000fff4   00000002  00000000  00000002  RWIX
  INT59                 0000fff6   00000002  00000000  00000002  RWIX
  INT60                 0000fff8   00000002  00000000  00000002  RWIX
  INT61                 0000fffa   00000002  00000000  00000002  RWIX
  INT62                 0000fffc   00000002  00000000  00000002  RWIX
  RESET                 0000fffe   00000002  00000002  00000000  RWIX


SECTION ALLOCATION MAP

 output                                  attributes/
section   page    origin      length       input sections
--------  ----  ----------  ----------   ----------------
.pinit     0    00009e00    00000000     UNINITIALIZED

.bss       0    00001c00    0000034d     UNINITIALIZED
                  00001c00    0000008c     nwk_QMgmt.obj (.bss)
                  00001c8c    00000088     datalog.obj (.bss)
                  00001d14    00000054     display1.obj (.bss)
                  00001d68    00000046     rfsimpliciti.obj (.bss)
                  00001dae    00000045     vti_ps.obj (.bss)
                  00001df3    00000001     main_ED_BM.obj (.bss)
                  00001df4    0000003d     mrfi.obj (.bss)
                  00001e31    0000001d     nwk.obj (.bss)
                  00001e4e    0000001c     BlueRobin_RX_868MHz.lib : BRRX_Resource.obj (.bss)
                  00001e6a    00000012     main.obj (.bss)
                  00001e7c    00000010     altitude.obj (.bss)
                  00001e8c    0000000e     clock.obj (.bss)
                  00001e9a    0000000c     BlueRobin_RX_868MHz.lib : BRRX_Scheduler.obj (.bss)
                  00001ea6    0000000a                             : BR_Common.obj (.bss)
                  00001eb0    0000000a     bluerobin.obj (.bss)
                  00001eba    0000000a     display.obj (.bss)
                  00001ec4    0000000a     nwk_frame.obj (.bss)
                  00001ece    0000000a     nwk_link.obj (.bss)
                  00001ed8    00000009     nwk_globals.obj (.bss)
                  00001ee1    00000001     nwk_api.obj (.bss)
                  00001ee2    00000009     nwk_join.obj (.bss)
                  00001eeb    00000001     nwk_ping.obj (.bss)
                  00001eec    00000008     BlueRobin_RX_868MHz.lib : BRRX_Timer.obj (.bss)
                  00001ef4    00000008     buzzer.obj (.bss)
                  00001efc    00000008     rts430x.lib : _lock.obj (.bss)
                  00001f04    00000008                 : boot.obj (.bss)
                  00001f0c    00000007     ports.obj (.bss)
                  00001f13    00000001     vti_as.obj (.bss)
                  00001f14    00000007     timer.obj (.bss)
                  00001f1b    00000001     --HOLE--
                  00001f1c    00000006     BlueRobin_RX_868MHz.lib : BRRX_Radio.obj (.bss)
                  00001f22    00000006     acceleration.obj (.bss)
                  00001f28    00000006     battery.obj (.bss)
                  00001f2e    00000006     date.obj (.bss)
                  00001f34    00000005     BlueRobin_RX_868MHz.lib : BRRX_Packet.obj (.bss)
                  00001f39    00000001     --HOLE--
                  00001f3a    00000004                             : BRRX_API.obj (.bss)
                  00001f3e    00000004     menu.obj (.bss)
                  00001f42    00000004     speed.obj (.bss)
                  00001f46    00000003     adc12.obj (.bss)
                  00001f49    00000001     --HOLE--
                  00001f4a    00000003     nwk_mgmt.obj (.bss)

.stack     0    00002bac    00000050     UNINITIALIZED
                  00002bac    00000002     rts430x.lib : boot.obj (.stack)
                  00002bae    0000004e     --HOLE--

.text      0    00009e00    00003db0     
                  00009e00    000002ae     vti_ps.obj (.text:conv_pa_to_meter)
                  0000a0ae    00000284     BlueRobin_RX_868MHz.lib : BRRX_Scheduler.obj (.text:BRRX__Scheduler_v)
                  0000a332    000001e6     vti_ps.obj (.text:update_pressure_table)
                  0000a518    00000162     main.obj (.text:display_update)
                  0000a67a    0000015e     nwk_link.obj (.text:smpl_send_link_reply)
                  0000a7d8    00000144     clock.obj (.text:display_time)
                  0000a91c    00000130     ports.obj (.text:_isr:PORT2_ISR)
                  0000aa4c    00000130     rts430x.lib : fs_add.obj (.text)
                  0000ab7c    00000110     datalog.obj (.text:datalog_sm)
                  0000ac8c    0000010c     BlueRobin_RX_868MHz.lib : BRRX_Scheduler.obj (.text:PacketMissed_v)
                  0000ad98    000000f6     mrfi.obj (.text:Mrfi_SyncPinRxIsr)
                  0000ae8e    000000f2     datalog.obj (.text:do_datalog)
                  0000af80    000000e8     display.obj (.text:display_chars)
                  0000b068    000000e6     timer.obj (.text:_isr:TIMER0_A0_ISR)
                  0000b14e    000000e2     speed.obj (.text:display_speed)
                  0000b230    000000d4     nwk.obj (.text:nwk_allocateLocalRxPort)
                  0000b304    000000ca     main.obj (.text:init_application)
                  0000b3ce    000000c8     display.obj (.text:itoa)
                  0000b496    000000c6     mrfi.obj (.text:MRFI_Transmit)
                  0000b55c    000000b6     BlueRobin_RX_868MHz.lib : BRRX_Scheduler.obj (.text:SearchPacketHit_u8)
                  0000b612    000000b6     rts430x.lib : fs_mpy.obj (.text)
                  0000b6c8    000000ae     datalog.obj (.text:datalog_write_buffer)
                  0000b776    000000ac     altitude.obj (.text:do_altitude_measurement)
                  0000b822    000000ac     main.obj (.text:read_calibration_values)
                  0000b8ce    000000a0     vti_ps.obj (.text:ps_twi_sda)
                  0000b96e    00000096     rf1a.obj (.text:Strobe)
                  0000ba04    00000090     mrfi.obj (.text:mrfiRadioInterfaceCmdStrobe)
                  0000ba94    00000090     nwk_frame.obj (.text:nwk_buildFrame)
                  0000bb24    0000008e     rts430x.lib : fs_div.obj (.text)
                  0000bbb2    0000008c     nwk_frame.obj (.text:dispatchFrame)
                  0000bc3e    0000008c     nwk.obj (.text:nwk_isConnectionValid)
                  0000bcca    00000086     BlueRobin_RX_868MHz.lib : BRRX_Scheduler.obj (.text:GetData_v)
                  0000bd50    00000086                             : BRRX_Scheduler.obj (.text:TrimACLK_Offset_v)
                  0000bdd6    00000080     nwk_frame.obj (.text:nwk_sendAckReply)
                  0000be56    0000007e     BlueRobin_RX_868MHz.lib : BRRX_Radio.obj (.text:BRRX_RadioReceive_v)
                  0000bed4    00000078     vti_ps.obj (.text:ps_init)
                  0000bf4c    00000076     nwk_QMgmt.obj (.text:nwk_QfindSlot)
                  0000bfc2    00000074     battery.obj (.text:battery_measurement)
                  0000c036    00000072     display.obj (.text:display_char)
                  0000c0a8    00000072     vti_ps.obj (.text:ps_read_register)
                  0000c11a    0000006a     BlueRobin_RX_868MHz.lib : BRRX_API.obj (.text:ResetTXCB_v)
                  0000c184    0000006a     main.obj (.text:init_global_variables)
                  0000c1ee    00000068     adc12.obj (.text:adc12_single_conversion)
                  0000c256    00000068     nwk_link.obj (.text:smpl_send_unlink_reply)
                  0000c2be    00000066     vti_ps.obj (.text:ps_get_pa)
                  0000c324    00000064     mrfi.obj (.text:mrfiRadioInterfaceReadRxFifo)
                  0000c388    00000062     mrfi.obj (.text:MRFI_RadioIsr)
                  0000c3ea    00000062     distance.obj (.text:display_distance)
                  0000c44c    00000060     altitude.obj (.text:start_altitude_measurement)
                  0000c4ac    00000060     display.obj (.text:write_lcd_mem)
                  0000c50c    0000005e     BlueRobin_RX_868MHz.lib : BRRX_Radio.obj (.text:BRRX_PacketEndTimerTask_v)
                  0000c56a    0000005e     display.obj (.text:clear_line)
                  0000c5c8    0000005c     BlueRobin_RX_868MHz.lib : BRRX_Scheduler.obj (.text:PrepareForFirstPacket_v)
                  0000c624    0000005a     vti_ps.obj (.text:ps_write_register)
                  0000c67e    00000058     BlueRobin_RX_868MHz.lib : BRRX_Scheduler.obj (.text:BRRX__StartNewSearch_v)
                  0000c6d6    00000058     rts430x.lib : div32u.obj (.text)
                  0000c72e    00000054     timer.obj (.text:_isr:TIMER0_A1_5_ISR)
                  0000c782    00000054     vti_ps.obj (.text:ps_twi_read)
                  0000c7d6    00000052     BlueRobin_RX_868MHz.lib : BRRX_Scheduler.obj (.text:TestStartTime_v)
                  0000c828    0000004e                             : BRRX_Scheduler.obj (.text:SearchPacketCheck_u8)
                  0000c876    0000004c     vti_ps.obj (.text:ps_get_temp)
                  0000c8c2    0000004c     rts430x.lib : fs_toul.obj (.text)
                  0000c90e    0000004a                 : fs_cmp.obj (.text)
                  0000c958    0000004a     buzzer.obj (.text:toggle_buzzer)
                  0000c9a2    00000048     BlueRobin_RX_868MHz.lib : BR_Common.obj (.text:BR__CalcRandomTimeOffset_u16)
                  0000c9ea    00000048     clock.obj (.text:clock_tick)
                  0000ca32    00000046     pmm.obj (.text:SetVCoreUp)
                  0000ca78    00000046     rts430x.lib : autoinit.obj (.text:_auto_init)
                  0000cabe    00000046     mrfi.obj (.text:mrfiRadioInterfaceReadReg)
                  0000cb04    00000046     rts430x.lib : fs_tou.obj (.text)
                  0000cb4a    00000046     buzzer.obj (.text:start_buzzer)
                  0000cb90    00000044     rf1a.obj (.text:ReadBurstReg)
                  0000cbd4    00000044     altitude.obj (.text:reset_altitude_measurement)
                  0000cc18    00000044     nwk_ping.obj (.text:smpl_send_ping_reply)
                  0000cc5c    00000042     BlueRobin_RX_868MHz.lib : BRRX_Scheduler.obj (.text:PacketHit_u8)
                  0000cc9e    00000042     flash.obj (.text:flash_erase_page)
                  0000cce0    00000042     vti_ps.obj (.text:ps_twi_write)
                  0000cd22    00000040     BlueRobin_RX_868MHz.lib : BRRX_API.obj (.text:BRRX__NewInfo_v)
                  0000cd62    00000040     nwk.obj (.text:nwk_isValidReply)
                  0000cda2    00000040     rts430x.lib : div32s.obj (.text)
                  0000cde2    0000003e     BlueRobin_RX_868MHz.lib : BRRX_Packet.obj (.text:BRRX__DecodePacket_u8)
                  0000ce20    0000003e     timer.obj (.text:Timer0_A4_Delay)
                  0000ce5e    0000003e     rts430x.lib : lsl32.obj (.text:l_lsl_const)
                  0000ce9c    0000003e                 : lsr32.obj (.text:l_lsr_const)
                  0000ceda    0000003e     nwk.obj (.text:nwk_getNextConnection)
                  0000cf18    0000003e     bluerobin.obj (.text:stop_bluerobin)
                  0000cf56    0000003c     BlueRobin_RX_868MHz.lib : BRRX_Timer.obj (.text:BRRX_TimerTask_v)
                  0000cf92    0000003c     nwk.obj (.text:nwk_findPeer)
                  0000cfce    0000003c     nwk.obj (.text:nwk_isLinkDuplicate)
                  0000d00a    0000003a     mrfi.obj (.text:Mrfi_RxAddrIsFiltered)
                  0000d044    0000003a     nwk_mgmt.obj (.text:nwk_processMgmt)
                  0000d07e    00000038     rf1a.obj (.text:WriteSingleReg)
                  0000d0b6    00000038     radio.obj (.text:_isr:radio_ISR)
                  0000d0ee    00000038     nwk.obj (.text:initializeConnection)
                  0000d126    00000036     datalog.obj (.text:reset_datalog)
                  0000d15c    00000036     rts430x.lib : fs_itof.obj (.text)
                  0000d192    00000034     BlueRobin_RX_868MHz.lib : BR_Common.obj (.text:BR__CalcCRC_u8)
                  0000d1c6    00000034     bsp_board.obj (.text:BSP_Delay)
                  0000d1fa    00000034     BlueRobin_RX_868MHz.lib : BRRX_Scheduler.obj (.text:TrimRFCLK_Offset_v)
                  0000d22e    00000034     mrfi.obj (.text:mrfiRadioInterfaceWriteReg)
                  0000d262    00000034     mrfi.obj (.text:mrfiRadioInterfaceWriteTxFifo)
                  0000d296    00000032     BlueRobin_RX_868MHz.lib : BRRX_Radio.obj (.text:BRRX_RadioStop_v)
                  0000d2c8    00000032     main.obj (.text:main)
                  0000d2fa    00000032     radio.obj (.text:radio_reset)
                  0000d32c    00000032     rts430x.lib : fs_ultof.obj (.text)
                  0000d35e    00000030     nwk_frame.obj (.text:nwk_sendFrame)
                  0000d38e    0000002e     mrfi.obj (.text:Mrfi_CalculateRssi)
                  0000d3bc    0000002e     vti_as.obj (.text:as_init)
                  0000d3ea    0000002c     mrfi.obj (.text:Mrfi_RxModeOff)
                  0000d416    0000002c     datalog.obj (.text:datalog_add_to_buffer)
                  0000d442    0000002c     nwk_QMgmt.obj (.text:nwk_QadjustOrder)
                  0000d46e    0000002c     rts430x.lib : div16s.obj (.text)
                  0000d49a    0000002c     main.obj (.text:wakeup_event)
                  0000d4c6    0000002a     BlueRobin_RX_868MHz.lib : BRRX_Scheduler.obj (.text:SearchPacketMissed_u8)
                  0000d4f0    0000002a     rts430x.lib : boot.obj (.text:_isr:_c_int00_noexit)
                  0000d51a    0000002a     flash.obj (.text:flash_write)
                  0000d544    0000002a     display.obj (.text:lcd_init)
                  0000d56e    0000002a     altitude.obj (.text:stop_altitude_measurement)
                  0000d598    00000028     nwk.obj (.text:map_lid2idx)
                  0000d5c0    00000028     nwk_ping.obj (.text:nwk_processPing)
                  0000d5e8    00000026     pmm.obj (.text:SetVCoreDown)
                  0000d60e    00000026     nwk_link.obj (.text:handleLinkRequest)
                  0000d634    00000026     ports.obj (.text:init_buttons)
                  0000d65a    00000026     vti_ps.obj (.text:init_pressure_table)
                  0000d680    00000026     nwk_link.obj (.text:nwk_processLink)
                  0000d6a6    00000026     main.obj (.text:process_requests)
                  0000d6cc    00000024     BlueRobin_RX_868MHz.lib : BRRX_API.obj (.text:BRRX_GetState_t)
                  0000d6f0    00000024     mrfi.obj (.text:Mrfi_DelayUsec)
                  0000d714    00000024     pmm.obj (.text:SetVCore)
                  0000d738    00000024     rts430x.lib : memcmp.obj (.text:memcmp)
                  0000d75c    00000024                 : fs_utof.obj (.text)
                  0000d780    00000022     bluerobin.obj (.text:get_bluerobin_data)
                  0000d7a2    00000022     clock.obj (.text:reset_clock)
                  0000d7c4    00000022     rts430x.lib : mult32_f5hw.obj (.text)
                  0000d7e6    00000020     nwk_frame.obj (.text:MRFI_RxCompleteISR)
                  0000d806    00000020     bluerobin.obj (.text:is_bluerobin_flash_write_window)
                  0000d826    00000020     rts430x.lib : memmov.obj (.text:memmove)
                  0000d846    00000020     buzzer.obj (.text:stop_buzzer)
                  0000d866    0000001e     mrfi.obj (.text:Mrfi_RandomBackoffDelay)
                  0000d884    0000001e     BlueRobin_RX_868MHz.lib : BRRX_Timer.obj (.text:SetAbsoluteTimer_v)
                  0000d8a2    0000001e     display.obj (.text:display_symbol)
                  0000d8c0    0000001c     nwk_join.obj (.text:nwk_processJoin)
                  0000d8dc    0000001a     BlueRobin_RX_868MHz.lib : BRRX_Scheduler.obj (.text:GetPacketTolerance_u8)
                  0000d8f6    0000001a     adc12.obj (.text:_isr:ADC12ISR)
                  0000d910    00000018     timer.obj (.text:Timer0_A3_Start)
                  0000d928    00000018     speed.obj (.text:convert_speed_to_km_h)
                  0000d940    00000016     mrfi.obj (.text:MRFI_RandomByte)
                  0000d956    00000016     mrfi.obj (.text:Mrfi_RxModeOn)
                  0000d96c    00000016     rf1a.obj (.text:ReadSingleReg)
                  0000d982    00000016     bluerobin.obj (.text:reset_bluerobin)
                  0000d998    00000016     rts430x.lib : div16u.obj (.text)
                  0000d9ae    00000016                 : mult16_f5hw.obj (.text)
                  0000d9c4    00000014     timer.obj (.text:Timer0_Init)
                  0000d9d8    00000014     buzzer.obj (.text:countdown_buzzer)
                  0000d9ec    00000014     rts430x.lib : memset.obj (.text:memset)
                  0000da00    00000014     date.obj (.text:reset_date)
                  0000da14    00000012     BlueRobin_RX_868MHz.lib : BRRX_Radio.obj (.text:BlueRobin_RadioISR_v)
                  0000da26    00000012     rts430x.lib : memcpy.obj (.text:memcpy)
                  0000da38    00000012     nwk_globals.obj (.text:nwk_getMyAddress)
                  0000da4a    00000010     radio.obj (.text:close_radio)
                  0000da5a    00000010     radio.obj (.text:radio_powerdown)
                  0000da6a    00000010     clock.obj (.text:sx_time)
                  0000da7a    0000000e     battery.obj (.text:reset_batt_measurement)
                  0000da88    0000000c     BlueRobin_RX_868MHz.lib : BRRX_Timer.obj (.text:BRRX__GetCurrentTime_u16)
                  0000da94    0000000c     mrfi.obj (.text:MRFI_PostKillSem)
                  0000daa0    0000000c     mrfi.obj (.text:MRFI_Receive)
                  0000daac    0000000c     nwk_ping.obj (.text:handlePingRequest)
                  0000dab8    0000000c     main.obj (.text:idle_loop)
                  0000dac4    0000000c     bluerobin.obj (.text:is_bluerobin)
                  0000dad0    0000000c     bluerobin.obj (.text:is_bluerobin_searching)
                  0000dadc    0000000c     rfsimpliciti.obj (.text:is_rf)
                  0000dae8    0000000c     nwk.obj (.text:nwk_getNumObjectFromMsg)
                  0000daf4    0000000c     vti_ps.obj (.text:ps_start)
                  0000db00    0000000c     display.obj (.text:switch_seg)
                  0000db0c    0000000a     BlueRobin_RX_868MHz.lib : BRRX_Timer.obj (.text:BRRX__StopTimer_v)
                  0000db16    0000000a     vti_ps.obj (.text:ps_stop)
                  0000db20    0000000a     buzzer.obj (.text:reset_buzzer)
                  0000db2a    0000000a     menu.obj (.text:update_date)
                  0000db34    0000000a     menu.obj (.text:update_time)
                  0000db3e    00000008     BlueRobin_RX_868MHz.lib : BRRX_Radio.obj (.text:BRRX_GetFS_Offset_s8)
                  0000db46    00000008     timer.obj (.text:Timer0_A3_Stop)
                  0000db4e    00000008     datalog.obj (.text:is_datalog)
                  0000db56    00000008     main.obj (.text:to_lpm)
                  0000db5e    00000006     BlueRobin_RX_868MHz.lib : BRRX_API.obj (.text:BRRX_GetHeartRate_u8)
                  0000db64    00000006                             : BRRX_API.obj (.text:BRRX_Stop_v)
                  0000db6a    00000006                             : BRRX_Timer.obj (.text:BRRX__CallTimer_v)
                  0000db70    00000006     speed.obj (.text:convert_speed_to_mi_h)
                  0000db76    00000006     altitude.obj (.text:is_altitude_measurement)
                  0000db7c    00000006     nwk.obj (.text:nwk_freeConnection)
                  0000db82    00000006     nwk_frame.obj (.text:nwk_getMyRxType)
                  0000db88    00000006     rfsimpliciti.obj (.text:reset_rf)
                  0000db8e    00000004     rts430x.lib : pre_init.obj (.text:_system_pre_init)
                  0000db92    00000004                 : exit.obj (.text:abort)
                  0000db96    00000004     nwk_globals.obj (.text:nwk_getProtocolVersion)
                  0000db9a    00000004     nwk_freq.obj (.text:nwk_processFreq)
                  0000db9e    00000004     nwk_security.obj (.text:nwk_processSecurity)
                  0000dba2    00000004     vti_ps.obj (.text:twi_delay)
                  0000dba6    00000002     rts430x.lib : _lock.obj (.text:_nop)
                  0000dba8    00000002     user.obj (.text:dummy)
                  0000dbaa    00000002     acceleration.obj (.text:reset_acceleration)
                  0000dbac    00000002     distance.obj (.text:sx_distance)
                  0000dbae    00000002     speed.obj (.text:sx_speed)

.const     0    0000dbb0    0000047e     
                  0000dbb0    00000220     display1.obj (.const:itoa_conversion_table)
                  0000ddd0    00000100     BlueRobin_RX_868MHz.lib : BR_Common.obj (.const:RandomValue_u8)
                  0000ded0    00000036     menu.obj (.const)
                  0000df06    0000002c     main.obj (.const:.string)
                  0000df32    0000002b     display1.obj (.const:lcd_font)
                  0000df5d    00000001     --HOLE-- [fill = 0]
                  0000df5e    0000002a     display1.obj (.const:segments_bitmask)
                  0000df88    00000022     vti_ps.obj (.const:h0)
                  0000dfaa    00000022     vti_ps.obj (.const:p0)
                  0000dfcc    00000018     nwk_frame.obj (.const:func)
                  0000dfe4    0000000e     rfbsl.obj (.const:.string)
                  0000dff2    0000000a     bluerobin.obj (.const:.string)
                  0000dffc    00000009     nwk_globals.obj (.const)
                  0000e005    00000001     --HOLE-- [fill = 0]
                  0000e006    00000008     display.obj (.const:.string)
                  0000e00e    00000008     rfsimpliciti.obj (.const:.string)
                  0000e016    00000006     datalog.obj (.const:.string)
                  0000e01c    00000006     distance.obj (.const:.string)
                  0000e022    00000004     altitude.obj (.const:.string)
                  0000e026    00000004     BlueRobin_RX_868MHz.lib : BRRX_Resource.obj (.const)
                  0000e02a    00000004     mrfi.obj (.const:mrfiBroadcastAddr)

.cinit     0    0000e02e    0000017c     
                  0000e02e    00000058     display1.obj (.cinit)
                  0000e086    0000004d     mrfi.obj (.cinit)
                  0000e0d3    00000001     --HOLE-- [fill = 0]
                  0000e0d4    00000020     nwk_frame.obj (.cinit)
                  0000e0f4    00000019     nwk_link.obj (.cinit)
                  0000e10d    00000001     --HOLE-- [fill = 0]
                  0000e10e    00000017     BlueRobin_RX_868MHz.lib : BRRX_Scheduler.obj (.cinit)
                  0000e125    00000001     --HOLE-- [fill = 0]
                  0000e126    00000017                             : BRRX_Timer.obj (.cinit)
                  0000e13d    00000001     --HOLE-- [fill = 0]
                  0000e13e    00000015     nwk_join.obj (.cinit)
                  0000e153    00000001     --HOLE-- [fill = 0]
                  0000e154    0000000c     BlueRobin_RX_868MHz.lib : BRRX_Radio.obj (.cinit)
                  0000e160    0000000c     menu.obj (.cinit)
                  0000e16c    0000000b     BlueRobin_RX_868MHz.lib : BRRX_Packet.obj (.cinit)
                  0000e177    00000001     --HOLE-- [fill = 0]
                  0000e178    0000000b     nwk_mgmt.obj (.cinit)
                  0000e183    00000001     --HOLE-- [fill = 0]
                  0000e184    00000005     nwk.obj (.cinit)
                  0000e189    00000001     --HOLE-- [fill = 0]
                  0000e18a    00000005     nwk_api.obj (.cinit)
                  0000e18f    00000001     --HOLE-- [fill = 0]
                  0000e190    00000005     nwk_globals.obj (.cinit)
                  0000e195    00000001     --HOLE-- [fill = 0]
                  0000e196    00000005     nwk_ping.obj (.cinit)
                  0000e19b    00000001     --HOLE-- [fill = 0]
                  0000e19c    00000005     ports.obj (.cinit)
                  0000e1a1    00000001     --HOLE-- [fill = 0]
                  0000e1a2    00000005     timer.obj (.cinit)
                  0000e1a7    00000001     --HOLE-- [fill = 0]
                  0000e1a8    00000002     (.pad.cinit) [fill = 0]

.int48     0    0000ffe0    00000002     
                  0000ffe0    00000002     ports.obj (.int48)

.int53     0    0000ffea    00000002     
                  0000ffea    00000002     radio.obj (.int53)

.int54     0    0000ffec    00000002     
                  0000ffec    00000002     timer.obj (.int54)

.int55     0    0000ffee    00000002     
                  0000ffee    00000002     timer.obj (.int55)

.int56     0    0000fff0    00000002     
                  0000fff0    00000002     adc12.obj (.int56)

.reset     0    0000fffe    00000002     
                  0000fffe    00000002     rts430x.lib : boot.obj (.reset)


GLOBAL SYMBOLS: SORTED ALPHABETICALLY BY Name 

address    name
--------   ----
00001c00   .bss
00009e00   .text
00000700   ADC12CTL0
00000701   ADC12CTL0_H
00000700   ADC12CTL0_L
00000702   ADC12CTL1
00000703   ADC12CTL1_H
00000702   ADC12CTL1_L
00000704   ADC12CTL2
00000705   ADC12CTL2_H
00000704   ADC12CTL2_L
0000070c   ADC12IE
0000070d   ADC12IE_H
0000070c   ADC12IE_L
0000070a   ADC12IFG
0000070b   ADC12IFG_H
0000070a   ADC12IFG_L
0000d8f6   ADC12ISR
0000070e   ADC12IV
0000070f   ADC12IV_H
0000070e   ADC12IV_L
00000710   ADC12MCTL0
00000711   ADC12MCTL1
0000071a   ADC12MCTL10
0000071b   ADC12MCTL11
0000071c   ADC12MCTL12
0000071d   ADC12MCTL13
0000071e   ADC12MCTL14
0000071f   ADC12MCTL15
00000712   ADC12MCTL2
00000713   ADC12MCTL3
00000714   ADC12MCTL4
00000715   ADC12MCTL5
00000716   ADC12MCTL6
00000717   ADC12MCTL7
00000718   ADC12MCTL8
00000719   ADC12MCTL9
00000720   ADC12MEM0
00000721   ADC12MEM0_H
00000720   ADC12MEM0_L
00000722   ADC12MEM1
00000734   ADC12MEM10
00000735   ADC12MEM10_H
00000734   ADC12MEM10_L
00000736   ADC12MEM11
00000737   ADC12MEM11_H
00000736   ADC12MEM11_L
00000738   ADC12MEM12
00000739   ADC12MEM12_H
00000738   ADC12MEM12_L
0000073a   ADC12MEM13
0000073b   ADC12MEM13_H
0000073a   ADC12MEM13_L
0000073c   ADC12MEM14
0000073d   ADC12MEM14_H
0000073c   ADC12MEM14_L
0000073e   ADC12MEM15
0000073f   ADC12MEM15_H
0000073e   ADC12MEM15_L
00000723   ADC12MEM1_H
00000722   ADC12MEM1_L
00000724   ADC12MEM2
00000725   ADC12MEM2_H
00000724   ADC12MEM2_L
00000726   ADC12MEM3
00000727   ADC12MEM3_H
00000726   ADC12MEM3_L
00000728   ADC12MEM4
00000729   ADC12MEM4_H
00000728   ADC12MEM4_L
0000072a   ADC12MEM5
0000072b   ADC12MEM5_H
0000072a   ADC12MEM5_L
0000072c   ADC12MEM6
0000072d   ADC12MEM6_H
0000072c   ADC12MEM6_L
0000072e   ADC12MEM7
0000072f   ADC12MEM7_H
0000072e   ADC12MEM7_L
00000730   ADC12MEM8
00000731   ADC12MEM8_H
00000730   ADC12MEM8_L
00000732   ADC12MEM9
00000733   ADC12MEM9_H
00000732   ADC12MEM9_L
000009c0   AESACTL0
000009c1   AESACTL0_H
000009c0   AESACTL0_L
000009c8   AESADIN
000009c9   AESADIN_H
000009c8   AESADIN_L
000009ca   AESADOUT
000009cb   AESADOUT_H
000009ca   AESADOUT_L
000009c6   AESAKEY
000009c7   AESAKEY_H
000009c6   AESAKEY_L
000009c4   AESASTAT
000009c5   AESASTAT_H
000009c4   AESASTAT_L
0000db3e   BRRX_GetFS_Offset_s8
0000db5e   BRRX_GetHeartRate_u8
0000d6cc   BRRX_GetState_t
0000c50c   BRRX_PacketEndTimerTask_v
0000be56   BRRX_RadioReceive_v
0000d296   BRRX_RadioStop_v
0000db64   BRRX_Stop_v
0000cf56   BRRX_TimerTask_v
0000db6a   BRRX__CallTimer_v
00001f36   BRRX__CurrentPacketTime_u16
00001f38   BRRX__CurrentSignalLevel_u8
0000cde2   BRRX__DecodePacket_u8
0000e026   BRRX__First_TXCB_t
0000da88   BRRX__GetCurrentTime_u16
0000e028   BRRX__Last_TXCB_t
00001ea2   BRRX__MaxSearchTries_u8
0000cd22   BRRX__NewInfo_v
00001eee   BRRX__NextEndTime_u16
00001eec   BRRX__NextEventTime_u16
00001ef1   BRRX__NextFrequencyOffset_s8
00001ef0   BRRX__NextFrequency_u8
00001ea6   BRRX__PacketBits_t
00001ea0   BRRX__PowerdownDelay_u8
0000a0ae   BRRX__Scheduler_v
00001ea3   BRRX__SearchRatio_u8
00001ea1   BRRX__SignalLevelReduction
0000c67e   BRRX__StartNewSearch_v
00001f34   BRRX__StatusFlags_t
0000db0c   BRRX__StopTimer_v
00001e4e   BRRX__TXCB_t
00001ea4   BRRX__TestMode_u8
00001ef2   BRRX__TimerState_t
0000d192   BR__CalcCRC_u8
0000c9a2   BR__CalcRandomTimeOffset_u16
0000d1c6   BSP_Delay
0000da14   BlueRobin_RadioISR_v
0000db92   C$$EXIT
000008c0   CBCTL0
000008c1   CBCTL0_H
000008c0   CBCTL0_L
000008c2   CBCTL1
000008c3   CBCTL1_H
000008c2   CBCTL1_L
000008c4   CBCTL2
000008c5   CBCTL2_H
000008c4   CBCTL2_L
000008c6   CBCTL3
000008c7   CBCTL3_H
000008c6   CBCTL3_L
000008cc   CBINT
000008cd   CBINT_H
000008cc   CBINT_L
000008ce   CBIV
00000150   CRCDI
00000152   CRCDIRB
00000153   CRCDIRB_H
00000152   CRCDIRB_L
00000151   CRCDI_H
00000150   CRCDI_L
00000154   CRCINIRES
00000155   CRCINIRES_H
00000154   CRCINIRES_L
00000156   CRCRESR
00000157   CRCRESR_H
00000156   CRCRESR_L
00000510   DMA0CTL
00000511   DMA0CTL_H
00000510   DMA0CTL_L
00000516   DMA0DA
00000516   DMA0DAL
00000512   DMA0SA
00000512   DMA0SAL
0000051a   DMA0SZ
00000520   DMA1CTL
00000521   DMA1CTL_H
00000520   DMA1CTL_L
00000526   DMA1DA
00000526   DMA1DAL
00000522   DMA1SA
00000522   DMA1SAL
0000052a   DMA1SZ
00000530   DMA2CTL
00000531   DMA2CTL_H
00000530   DMA2CTL_L
00000536   DMA2DA
00000536   DMA2DAL
00000532   DMA2SA
00000532   DMA2SAL
0000053a   DMA2SZ
00000500   DMACTL0
00000501   DMACTL0_H
00000500   DMACTL0_L
00000502   DMACTL1
00000503   DMACTL1_H
00000502   DMACTL1_L
00000504   DMACTL2
00000505   DMACTL2_H
00000504   DMACTL2_L
00000506   DMACTL3
00000507   DMACTL3_H
00000506   DMACTL3_L
00000508   DMACTL4
00000509   DMACTL4_H
00000508   DMACTL4_L
0000050e   DMAIV
0000050f   DMAIV_H
0000050e   DMAIV_L
00000140   FCTL1
00000141   FCTL1_H
00000140   FCTL1_L
00000144   FCTL3
00000145   FCTL3_H
00000144   FCTL3_L
00000146   FCTL4
00000147   FCTL4_H
00000146   FCTL4_L
00000a04   LCDBBLKCTL
00000a05   LCDBBLKCTL_H
00000a04   LCDBBLKCTL_L
00000a12   LCDBCPCTL
00000a13   LCDBCPCTL_H
00000a12   LCDBCPCTL_L
00000a00   LCDBCTL0
00000a01   LCDBCTL0_H
00000a00   LCDBCTL0_L
00000a02   LCDBCTL1
00000a03   LCDBCTL1_H
00000a02   LCDBCTL1_L
00000a1e   LCDBIV
00000a40   LCDBM1
00000a49   LCDBM10
00000a4a   LCDBM11
00000a4b   LCDBM12
00000a4c   LCDBM13
00000a4d   LCDBM14
00000a4e   LCDBM15
00000a4f   LCDBM16
00000a50   LCDBM17
00000a51   LCDBM18
00000a52   LCDBM19
00000a41   LCDBM2
00000a53   LCDBM20
00000a54   LCDBM21
00000a55   LCDBM22
00000a56   LCDBM23
00000a57   LCDBM24
00000a42   LCDBM3
00000a43   LCDBM4
00000a44   LCDBM5
00000a45   LCDBM6
00000a46   LCDBM7
00000a47   LCDBM8
00000a48   LCDBM9
00000a06   LCDBMEMCTL
00000a07   LCDBMEMCTL_H
00000a06   LCDBMEMCTL_L
00000a0a   LCDBPCTL0
00000a0b   LCDBPCTL0_H
00000a0a   LCDBPCTL0_L
00000a0c   LCDBPCTL1
00000a0d   LCDBPCTL1_H
00000a0c   LCDBPCTL1_L
00000a0e   LCDBPCTL2
00000a0f   LCDBPCTL2_H
00000a0e   LCDBPCTL2_L
00000a10   LCDBPCTL3
00000a11   LCDBPCTL3_H
00000a10   LCDBPCTL3_L
00000a08   LCDBVCTL
00000a09   LCDBVCTL_H
00000a08   LCDBVCTL_L
00000a20   LCDM1
00000a29   LCDM10
00000a2a   LCDM11
00000a2b   LCDM12
00000a2c   LCDM13
00000a2d   LCDM14
00000a2e   LCDM15
00000a2f   LCDM16
00000a30   LCDM17
00000a31   LCDM18
00000a32   LCDM19
00000a21   LCDM2
00000a33   LCDM20
00000a34   LCDM21
00000a35   LCDM22
00000a36   LCDM23
00000a37   LCDM24
00000a22   LCDM3
00000a23   LCDM4
00000a24   LCDM5
00000a25   LCDM6
00000a26   LCDM7
00000a27   LCDM8
00000a28   LCDM9
0000ce96   L_LSL_1
0000ce72   L_LSL_10
0000ce6e   L_LSL_11
0000ce6a   L_LSL_12
0000ce66   L_LSL_13
0000ce62   L_LSL_14
0000ce5e   L_LSL_15
0000ce92   L_LSL_2
0000ce8e   L_LSL_3
0000ce8a   L_LSL_4
0000ce86   L_LSL_5
0000ce82   L_LSL_6
0000ce7e   L_LSL_7
0000ce7a   L_LSL_8
0000ce76   L_LSL_9
0000ced4   L_LSR_1
0000ceb0   L_LSR_10
0000ceac   L_LSR_11
0000cea8   L_LSR_12
0000cea4   L_LSR_13
0000cea0   L_LSR_14
0000ce9c   L_LSR_15
0000ced0   L_LSR_2
0000cecc   L_LSR_3
0000cec8   L_LSR_4
0000cec4   L_LSR_5
0000cec0   L_LSR_6
0000cebc   L_LSR_7
0000ceb8   L_LSR_8
0000ceb4   L_LSR_9
000004c4   MAC
000004da   MAC32H
000004db   MAC32H_H
000004da   MAC32H_L
000004d8   MAC32L
000004d9   MAC32L_H
000004d8   MAC32L_L
000004c6   MACS
000004de   MACS32H
000004df   MACS32H_H
000004de   MACS32H_L
000004dc   MACS32L
000004dd   MACS32L_H
000004dc   MACS32L_L
000004c7   MACS_H
000004c6   MACS_L
000004c5   MAC_H
000004c4   MAC_L
000004c0   MPY
000004ec   MPY32CTL0
000004ed   MPY32CTL0_H
000004ec   MPY32CTL0_L
000004d2   MPY32H
000004d3   MPY32H_H
000004d2   MPY32H_L
000004d0   MPY32L
000004d1   MPY32L_H
000004d0   MPY32L_L
000004c2   MPYS
000004d6   MPYS32H
000004d7   MPYS32H_H
000004d6   MPYS32H_L
000004d4   MPYS32L
000004d5   MPYS32L_H
000004d4   MPYS32L_L
000004c3   MPYS_H
000004c2   MPYS_L
000004c1   MPY_H
000004c0   MPY_L
0000da94   MRFI_PostKillSem
0000c388   MRFI_RadioIsr
0000d940   MRFI_RandomByte
0000daa0   MRFI_Receive
0000d7e6   MRFI_RxCompleteISR
0000b496   MRFI_Transmit
000004c8   OP2
000004e2   OP2H
000004e3   OP2H_H
000004e2   OP2H_L
000004e0   OP2L
000004e1   OP2L_H
000004e0   OP2L_L
000004c9   OP2_H
000004c8   OP2_L
0000020e   P1IV
000001c8   P1MAP01
000001c9   P1MAP01_H
000001c8   P1MAP01_L
000001ca   P1MAP23
000001cb   P1MAP23_H
000001ca   P1MAP23_L
000001cc   P1MAP45
000001cd   P1MAP45_H
000001cc   P1MAP45_L
000001ce   P1MAP67
000001cf   P1MAP67_H
000001ce   P1MAP67_L
0000021e   P2IV
000001d0   P2MAP01
000001d1   P2MAP01_H
000001d0   P2MAP01_L
000001d2   P2MAP23
000001d3   P2MAP23_H
000001d2   P2MAP23_L
000001d4   P2MAP45
000001d5   P2MAP45_H
000001d4   P2MAP45_L
000001d6   P2MAP67
000001d7   P2MAP67_H
000001d6   P2MAP67_L
000001d8   P3MAP01
000001d9   P3MAP01_H
000001d8   P3MAP01_L
000001da   P3MAP23
000001db   P3MAP23_H
000001da   P3MAP23_L
000001dc   P3MAP45
000001dd   P3MAP45_H
000001dc   P3MAP45_L
000001de   P3MAP67
000001df   P3MAP67_H
000001de   P3MAP67_L
00000204   PADIR
00000205   PADIR_H
00000204   PADIR_L
00000208   PADS
00000209   PADS_H
00000208   PADS_L
0000021a   PAIE
00000218   PAIES
00000219   PAIES_H
00000218   PAIES_L
0000021b   PAIE_H
0000021a   PAIE_L
0000021c   PAIFG
0000021d   PAIFG_H
0000021c   PAIFG_L
00000200   PAIN
00000201   PAIN_H
00000200   PAIN_L
00000202   PAOUT
00000203   PAOUT_H
00000202   PAOUT_L
00000206   PAREN
00000207   PAREN_H
00000206   PAREN_L
0000020a   PASEL
0000020b   PASEL_H
0000020a   PASEL_L
00000224   PBDIR
00000225   PBDIR_H
00000224   PBDIR_L
00000228   PBDS
00000229   PBDS_H
00000228   PBDS_L
00000220   PBIN
00000221   PBIN_H
00000220   PBIN_L
00000222   PBOUT
00000223   PBOUT_H
00000222   PBOUT_L
00000226   PBREN
00000227   PBREN_H
00000226   PBREN_L
0000022a   PBSEL
0000022b   PBSEL_H
0000022a   PBSEL_L
00000244   PCDIR
00000245   PCDIR_H
00000244   PCDIR_L
00000248   PCDS
00000249   PCDS_H
00000248   PCDS_L
00000240   PCIN
00000241   PCIN_H
00000240   PCIN_L
00000242   PCOUT
00000243   PCOUT_H
00000242   PCOUT_L
00000246   PCREN
00000247   PCREN_H
00000246   PCREN_L
0000024a   PCSEL
0000024b   PCSEL_H
0000024a   PCSEL_L
00000324   PJDIR
00000325   PJDIR_H
00000324   PJDIR_L
00000328   PJDS
00000329   PJDS_H
00000328   PJDS_L
00000320   PJIN
00000321   PJIN_H
00000320   PJIN_L
00000322   PJOUT
00000323   PJOUT_H
00000322   PJOUT_L
00000326   PJREN
00000327   PJREN_H
00000326   PJREN_L
000001c2   PMAPCTL
000001c3   PMAPCTL_H
000001c2   PMAPCTL_L
000001c0   PMAPKEYID
000001c1   PMAPKEYID_H
000001c0   PMAPKEYID_L
00000120   PMMCTL0
00000121   PMMCTL0_H
00000120   PMMCTL0_L
00000122   PMMCTL1
00000123   PMMCTL1_H
00000122   PMMCTL1_L
0000012c   PMMIFG
0000012d   PMMIFG_H
0000012c   PMMIFG_L
0000012e   PMMRIE
0000012f   PMMRIE_H
0000012e   PMMRIE_L
0000a91c   PORT2_ISR
00000158   RCCTL0
00000159   RCCTL0_H
00000158   RCCTL0_L
000001b0   REFCTL0
000001b1   REFCTL0_H
000001b0   REFCTL0_L
000004e4   RES0
000004e5   RES0_H
000004e4   RES0_L
000004e6   RES1
000004e7   RES1_H
000004e6   RES1_L
000004e8   RES2
000004e9   RES2_H
000004e8   RES2_L
000004ea   RES3
000004eb   RES3_H
000004ea   RES3_L
000004cc   RESHI
000004cd   RESHI_H
000004cc   RESHI_L
000004ca   RESLO
000004cb   RESLO_H
000004ca   RESLO_L
00000f16   RF1ADINW
00000f17   RF1ADINW_H
00000f16   RF1ADINW_L
00000f28   RF1ADOUT0W
00000f29   RF1ADOUT0W_H
00000f28   RF1ADOUT0W_L
00000f2a   RF1ADOUT1W
00000f2b   RF1ADOUT1W_H
00000f2a   RF1ADOUT1W_L
00000f2c   RF1ADOUT2W
00000f2d   RF1ADOUT2W_H
00000f2c   RF1ADOUT2W_L
00000f36   RF1AIE
00000f34   RF1AIES
00000f35   RF1AIES_H
00000f34   RF1AIES_L
00000f37   RF1AIE_H
00000f36   RF1AIE_L
00000f00   RF1AIFCTL0
00000f01   RF1AIFCTL0_H
00000f00   RF1AIFCTL0_L
00000f02   RF1AIFCTL1
00000f03   RF1AIFCTL1_H
00000f02   RF1AIFCTL1_L
00000f04   RF1AIFCTL2
00000f05   RF1AIFCTL2_H
00000f04   RF1AIFCTL2_L
00000f06   RF1AIFERR
00000f0c   RF1AIFERRV
00000f0d   RF1AIFERRV_H
00000f0c   RF1AIFERRV_L
00000f07   RF1AIFERR_H
00000f06   RF1AIFERR_L
00000f32   RF1AIFG
00000f33   RF1AIFG_H
00000f32   RF1AIFG_L
00000f0e   RF1AIFIV
00000f0f   RF1AIFIV_H
00000f0e   RF1AIFIV_L
00000f30   RF1AIN
00000f12   RF1AINSTR1W
00000f13   RF1AINSTR1W_H
00000f12   RF1AINSTR1W_L
00000f14   RF1AINSTR2W
00000f15   RF1AINSTR2W_H
00000f14   RF1AINSTR2W_L
00000f10   RF1AINSTRW
00000f11   RF1AINSTRW_H
00000f10   RF1AINSTRW_L
00000f31   RF1AIN_H
00000f30   RF1AIN_L
00000f38   RF1AIV
00000f39   RF1AIV_H
00000f38   RF1AIV_L
00000f3c   RF1ARXFIFO
00000f3d   RF1ARXFIFO_H
00000f3c   RF1ARXFIFO_L
00000f20   RF1ASTAT0W
00000f21   RF1ASTAT0W_H
00000f20   RF1ASTAT0W_L
00000f22   RF1ASTAT1W
00000f23   RF1ASTAT1W_H
00000f22   RF1ASTAT1W_L
00000f24   RF1ASTAT2W
00000f25   RF1ASTAT2W_H
00000f24   RF1ASTAT2W_L
00000f3e   RF1ATXFIFO
00000f3f   RF1ATXFIFO_H
00000f3e   RF1ATXFIFO_L
000004ba   RTCADOWDAY
000004bb   RTCADOWDAY_H
000004ba   RTCADOWDAY_L
000004b8   RTCAMINHR
000004b9   RTCAMINHR_H
000004b8   RTCAMINHR_L
000004a0   RTCCTL01
000004a1   RTCCTL01_H
000004a0   RTCCTL01_L
000004a2   RTCCTL23
000004a3   RTCCTL23_H
000004a2   RTCCTL23_L
000004b4   RTCDATE
000004b5   RTCDATE_H
000004b4   RTCDATE_L
000004ae   RTCIV
000004ac   RTCPS
000004a8   RTCPS0CTL
000004a9   RTCPS0CTL_H
000004a8   RTCPS0CTL_L
000004aa   RTCPS1CTL
000004ab   RTCPS1CTL_H
000004aa   RTCPS1CTL_L
000004ad   RTCPS_H
000004ac   RTCPS_L
000004b0   RTCTIM0
000004b1   RTCTIM0_H
000004b0   RTCTIM0_L
000004b2   RTCTIM1
000004b3   RTCTIM1_H
000004b2   RTCTIM1_L
000004b6   RTCYEAR
000004b7   RTCYEAR_H
000004b6   RTCYEAR_L
0000ddd0   RandomValue_u8
0000cb90   ReadBurstReg
0000d96c   ReadSingleReg
00000100   SFRIE1
00000101   SFRIE1_H
00000100   SFRIE1_L
00000102   SFRIFG1
00000103   SFRIFG1_H
00000102   SFRIFG1_L
00000104   SFRRPCR
00000105   SFRRPCR_H
00000104   SFRRPCR_L
000004ce   SUMEXT
000004cf   SUMEXT_H
000004ce   SUMEXT_L
00000124   SVSMHCTL
00000125   SVSMHCTL_H
00000124   SVSMHCTL_L
00000128   SVSMIO
00000129   SVSMIO_H
00000128   SVSMIO_L
00000126   SVSMLCTL
00000127   SVSMLCTL_H
00000126   SVSMLCTL_L
00000198   SYSBERRIV
00000199   SYSBERRIV_H
00000198   SYSBERRIV_L
00000182   SYSBSLC
00000183   SYSBSLC_H
00000182   SYSBSLC_L
00000180   SYSCTL
00000181   SYSCTL_H
00000180   SYSCTL_L
00000186   SYSJMBC
00000187   SYSJMBC_H
00000186   SYSJMBC_L
00000188   SYSJMBI0
00000189   SYSJMBI0_H
00000188   SYSJMBI0_L
0000018a   SYSJMBI1
0000018b   SYSJMBI1_H
0000018a   SYSJMBI1_L
0000018c   SYSJMBO0
0000018d   SYSJMBO0_H
0000018c   SYSJMBO0_L
0000018e   SYSJMBO1
0000018f   SYSJMBO1_H
0000018e   SYSJMBO1_L
0000019e   SYSRSTIV
0000019f   SYSRSTIV_H
0000019e   SYSRSTIV_L
0000019c   SYSSNIV
0000019d   SYSSNIV_H
0000019c   SYSSNIV_L
0000019a   SYSUNIV
0000019b   SYSUNIV_H
0000019a   SYSUNIV_L
0000d714   SetVCore
0000d5e8   SetVCoreDown
0000ca32   SetVCoreUp
0000b96e   Strobe
00000352   TA0CCR0
00000353   TA0CCR0_H
00000352   TA0CCR0_L
00000354   TA0CCR1
00000355   TA0CCR1_H
00000354   TA0CCR1_L
00000356   TA0CCR2
00000357   TA0CCR2_H
00000356   TA0CCR2_L
00000358   TA0CCR3
00000359   TA0CCR3_H
00000358   TA0CCR3_L
0000035a   TA0CCR4
0000035b   TA0CCR4_H
0000035a   TA0CCR4_L
00000342   TA0CCTL0
00000343   TA0CCTL0_H
00000342   TA0CCTL0_L
00000344   TA0CCTL1
00000345   TA0CCTL1_H
00000344   TA0CCTL1_L
00000346   TA0CCTL2
00000347   TA0CCTL2_H
00000346   TA0CCTL2_L
00000348   TA0CCTL3
00000349   TA0CCTL3_H
00000348   TA0CCTL3_L
0000034a   TA0CCTL4
0000034b   TA0CCTL4_H
0000034a   TA0CCTL4_L
00000340   TA0CTL
00000341   TA0CTL_H
00000340   TA0CTL_L
00000360   TA0EX0
00000361   TA0EX0_H
00000360   TA0EX0_L
0000036e   TA0IV
0000036f   TA0IV_H
0000036e   TA0IV_L
00000350   TA0R
00000351   TA0R_H
00000350   TA0R_L
00000392   TA1CCR0
00000393   TA1CCR0_H
00000392   TA1CCR0_L
00000394   TA1CCR1
00000395   TA1CCR1_H
00000394   TA1CCR1_L
00000396   TA1CCR2
00000397   TA1CCR2_H
00000396   TA1CCR2_L
00000382   TA1CCTL0
00000383   TA1CCTL0_H
00000382   TA1CCTL0_L
00000384   TA1CCTL1
00000385   TA1CCTL1_H
00000384   TA1CCTL1_L
00000386   TA1CCTL2
00000387   TA1CCTL2_H
00000386   TA1CCTL2_L
00000380   TA1CTL
00000381   TA1CTL_H
00000380   TA1CTL_L
000003a0   TA1EX0
000003a1   TA1EX0_H
000003a0   TA1EX0_L
000003ae   TA1IV
000003af   TA1IV_H
000003ae   TA1IV_L
00000390   TA1R
00000391   TA1R_H
00000390   TA1R_L
0000b068   TIMER0_A0_ISR
0000c72e   TIMER0_A1_5_ISR
0000d910   Timer0_A3_Start
0000db46   Timer0_A3_Stop
0000ce20   Timer0_A4_Delay
0000d9c4   Timer0_Init
000005d0   UCA0ABCTL
000005c6   UCA0BRW
000005c7   UCA0BRW_H
000005c6   UCA0BRW_L
000005c0   UCA0CTLW0
000005c1   UCA0CTLW0_H
000005c0   UCA0CTLW0_L
000005dc   UCA0ICTL
000005dd   UCA0ICTL_H
000005dc   UCA0ICTL_L
000005d2   UCA0IRCTL
000005d3   UCA0IRCTL_H
000005d2   UCA0IRCTL_L
000005de   UCA0IV
000005c8   UCA0MCTL
000005cc   UCA0RXBUF
000005ca   UCA0STAT
000005ce   UCA0TXBUF
000005e6   UCB0BRW
000005e7   UCB0BRW_H
000005e6   UCB0BRW_L
000005e0   UCB0CTLW0
000005e1   UCB0CTLW0_H
000005e0   UCB0CTLW0_L
000005f0   UCB0I2COA
000005f1   UCB0I2COA_H
000005f0   UCB0I2COA_L
000005f2   UCB0I2CSA
000005f3   UCB0I2CSA_H
000005f2   UCB0I2CSA_L
000005fc   UCB0ICTL
000005fd   UCB0ICTL_H
000005fc   UCB0ICTL_L
000005fe   UCB0IV
000005ec   UCB0RXBUF
000005ea   UCB0STAT
000005ee   UCB0TXBUF
00000160   UCSCTL0
00000161   UCSCTL0_H
00000160   UCSCTL0_L
00000162   UCSCTL1
00000163   UCSCTL1_H
00000162   UCSCTL1_L
00000164   UCSCTL2
00000165   UCSCTL2_H
00000164   UCSCTL2_L
00000166   UCSCTL3
00000167   UCSCTL3_H
00000166   UCSCTL3_L
00000168   UCSCTL4
00000169   UCSCTL4_H
00000168   UCSCTL4_L
0000016a   UCSCTL5
0000016b   UCSCTL5_H
0000016a   UCSCTL5_L
0000016c   UCSCTL6
0000016d   UCSCTL6_H
0000016c   UCSCTL6_L
0000016e   UCSCTL7
0000016f   UCSCTL7_H
0000016e   UCSCTL7_L
00000170   UCSCTL8
00000171   UCSCTL8_H
00000170   UCSCTL8_L
0000015c   WDTCTL
0000015d   WDTCTL_H
0000015c   WDTCTL_L
0000d07e   WriteSingleReg
00002bfc   __STACK_END
00000050   __STACK_SIZE
00000001   __TI_args_main
00000001   __TI_auto_init
00000001   __TI_exit
ffffffff   __binit__
00001c00   __bss__
ffffffff   __c_args__
0000e02e   __cinit__
0000d46e   __divi
0000cda2   __divli
0000d998   __divu
0000c6d6   __divul
00001f4d   __end__
0000dbb0   __etext__
0000aa52   __fs_add
0000c90e   __fs_cmp
0000bb24   __fs_div
0000d15c   __fs_itof
0000b612   __fs_mpy
0000aa4c   __fs_sub
0000cb04   __fs_tou
0000c8c2   __fs_toul
0000d32c   __fs_ultof
0000d75c   __fs_utof
0000d9ae   __mpyi_f5hw
0000d7c4   __mpyl_f5hw
ffffffff   __pinit__
0000d46e   __remi
0000cda2   __remli
0000d998   __remu
0000c6d6   __remul
00009e00   __text__
0000ca78   _auto_init
0000d4f0   _c_int00
0000d4f0   _c_int00_noexit
00001f04   _cleanup_ptr
00001f08   _dtors_ptr
00001efc   _lock
0000dba6   _nop
0000fffe   _reset_vector
00002bac   _stack
0000db8e   _system_pre_init
00001f00   _unlock
0000db92   abort
00001f48   adc12_data_ready
00001f46   adc12_result
0000c1ee   adc12_single_conversion
0000d3bc   as_init
00001f13   as_ok
0000bfc2   battery_measurement
00001e70   bike
ffffffff   binit
00001f20   brrx_packet_end_cap_value
00001d96   burst_end
00001d93   burst_mode
00001d98   burst_packet
00001daa   burst_packet_index
00001d94   burst_start
00001f0c   button
00001f1a   change_menu
0000e02e   cinit
0000c56a   clear_line
0000c9ea   clock_tick
0000da4a   close_radio
00009e00   conv_pa_to_meter
0000d928   convert_speed_to_km_h
0000db70   convert_speed_to_mi_h
0000d9d8   countdown_buzzer
0000d416   datalog_add_to_buffer
0000ab7c   datalog_sm
0000b6c8   datalog_write_buffer
00001eba   display
0000c036   display_char
0000af80   display_chars
0000c3ea   display_distance
0000b14e   display_speed
0000d8a2   display_symbol
0000a7d8   display_time
0000a518   display_update
0000b776   do_altitude_measurement
0000ae8e   do_datalog
0000dba8   dummy
00001f4d   end
0000dbb0   etext
0000cc9e   flash_erase_page
00001dac   flash_ptr
0000d51a   flash_write
00001f14   fptr_Timer0_A3_function
00001e74   fptr_lcd_function_line1
00001e78   fptr_lcd_function_line2
0000d780   get_bluerobin_data
0000df88   h0
0000dab8   idle_loop
0000b304   init_application
0000d634   init_buttons
0000c184   init_global_variables
0000d65a   init_pressure_table
0000db76   is_altitude_measurement
0000dac4   is_bluerobin
0000d806   is_bluerobin_flash_write_window
0000dad0   is_bluerobin_searching
0000db4e   is_datalog
0000dadc   is_rf
0000b3ce   itoa
0000dbb0   itoa_conversion_table
00001ebc   itoa_str
0000df32   lcd_font
0000d544   lcd_init
0000d2c8   main
0000d738   memcmp
0000da26   memcpy
0000d826   memmove
0000d9ec   memset
0000ded0   menu_L1_Speed
0000def4   menu_L2_Distance
0000dee2   menu_L2_Time
00001e6e   message
00001e30   method
0000e02a   mrfiBroadcastAddr
0000ba04   mrfiRadioInterfaceCmdStrobe
0000cabe   mrfiRadioInterfaceReadReg
0000c324   mrfiRadioInterfaceReadRxFifo
0000d22e   mrfiRadioInterfaceWriteReg
0000d262   mrfiRadioInterfaceWriteTxFifo
0000d442   nwk_QadjustOrder
0000bf4c   nwk_QfindSlot
0000b230   nwk_allocateLocalRxPort
0000ba94   nwk_buildFrame
0000cf92   nwk_findPeer
0000db7c   nwk_freeConnection
0000da38   nwk_getMyAddress
0000db82   nwk_getMyRxType
0000ceda   nwk_getNextConnection
0000dae8   nwk_getNumObjectFromMsg
0000db96   nwk_getProtocolVersion
0000bc3e   nwk_isConnectionValid
0000cfce   nwk_isLinkDuplicate
0000cd62   nwk_isValidReply
0000db9a   nwk_processFreq
0000d8c0   nwk_processJoin
0000d680   nwk_processLink
0000d044   nwk_processMgmt
0000d5c0   nwk_processPing
0000db9e   nwk_processSecurity
0000bdd6   nwk_sendAckReply
0000d35e   nwk_sendFrame
00001dae   p
0000dfaa   p0
ffffffff   pinit
0000d6a6   process_requests
0000c2be   ps_get_pa
0000c876   ps_get_temp
0000bed4   ps_init
00001df2   ps_ok
0000c0a8   ps_read_register
0000daf4   ps_start
0000db16   ps_stop
0000c782   ps_twi_read
0000b8ce   ps_twi_sda
0000cce0   ps_twi_write
0000c624   ps_write_register
00001f3e   ptrMenu_L1
00001f40   ptrMenu_L2
0000d0b6   radio_ISR
0000da5a   radio_powerdown
0000d2fa   radio_reset
0000b822   read_calibration_values
00001e6c   request
0000dbaa   reset_acceleration
0000cbd4   reset_altitude_measurement
0000da7a   reset_batt_measurement
0000d982   reset_bluerobin
0000db20   reset_buzzer
0000d7a2   reset_clock
0000d126   reset_datalog
0000da00   reset_date
0000db88   reset_rf
00001e72   rf_frequoffset
00001f22   sAccel
00001e7c   sAlt
00001f28   sBatt
00001eb0   sBlueRobin
00001f0e   sButton
00001ef4   sBuzzer
00001c8c   sDatalog
00001f2e   sDate
00001ee1   sInit_done
00001d68   sRFsmpl
00001e8c   sTime
00001f18   sTimer
0000df5e   segments_bitmask
00001d14   segments_lcdmem
00001d6e   simpliciti_data
00001d8e   simpliciti_ed_address
00001d6c   simpliciti_flag
00001d92   simpliciti_reply_count
00001f44   speed
00001f42   speed_flag
0000c44c   start_altitude_measurement
0000cb4a   start_buzzer
0000d56e   stop_altitude_measurement
0000cf18   stop_bluerobin
0000d846   stop_buzzer
0000db00   switch_seg
0000dbac   sx_distance
0000dbae   sx_speed
0000da6a   sx_time
00001e6a   sys
0000db56   to_lpm
0000c958   toggle_buzzer
0000dba2   twi_delay
0000db2a   update_date
0000a332   update_pressure_table
0000db34   update_time
0000d49a   wakeup_event
0000c4ac   write_lcd_mem


GLOBAL SYMBOLS: SORTED BY Symbol Address 

address    name
--------   ----
00000001   __TI_args_main
00000001   __TI_auto_init
00000001   __TI_exit
00000050   __STACK_SIZE
00000100   SFRIE1
00000100   SFRIE1_L
00000101   SFRIE1_H
00000102   SFRIFG1
00000102   SFRIFG1_L
00000103   SFRIFG1_H
00000104   SFRRPCR
00000104   SFRRPCR_L
00000105   SFRRPCR_H
00000120   PMMCTL0
00000120   PMMCTL0_L
00000121   PMMCTL0_H
00000122   PMMCTL1
00000122   PMMCTL1_L
00000123   PMMCTL1_H
00000124   SVSMHCTL
00000124   SVSMHCTL_L
00000125   SVSMHCTL_H
00000126   SVSMLCTL
00000126   SVSMLCTL_L
00000127   SVSMLCTL_H
00000128   SVSMIO
00000128   SVSMIO_L
00000129   SVSMIO_H
0000012c   PMMIFG
0000012c   PMMIFG_L
0000012d   PMMIFG_H
0000012e   PMMRIE
0000012e   PMMRIE_L
0000012f   PMMRIE_H
00000140   FCTL1
00000140   FCTL1_L
00000141   FCTL1_H
00000144   FCTL3
00000144   FCTL3_L
00000145   FCTL3_H
00000146   FCTL4
00000146   FCTL4_L
00000147   FCTL4_H
00000150   CRCDI
00000150   CRCDI_L
00000151   CRCDI_H
00000152   CRCDIRB
00000152   CRCDIRB_L
00000153   CRCDIRB_H
00000154   CRCINIRES
00000154   CRCINIRES_L
00000155   CRCINIRES_H
00000156   CRCRESR
00000156   CRCRESR_L
00000157   CRCRESR_H
00000158   RCCTL0
00000158   RCCTL0_L
00000159   RCCTL0_H
0000015c   WDTCTL
0000015c   WDTCTL_L
0000015d   WDTCTL_H
00000160   UCSCTL0
00000160   UCSCTL0_L
00000161   UCSCTL0_H
00000162   UCSCTL1
00000162   UCSCTL1_L
00000163   UCSCTL1_H
00000164   UCSCTL2
00000164   UCSCTL2_L
00000165   UCSCTL2_H
00000166   UCSCTL3
00000166   UCSCTL3_L
00000167   UCSCTL3_H
00000168   UCSCTL4
00000168   UCSCTL4_L
00000169   UCSCTL4_H
0000016a   UCSCTL5
0000016a   UCSCTL5_L
0000016b   UCSCTL5_H
0000016c   UCSCTL6
0000016c   UCSCTL6_L
0000016d   UCSCTL6_H
0000016e   UCSCTL7
0000016e   UCSCTL7_L
0000016f   UCSCTL7_H
00000170   UCSCTL8
00000170   UCSCTL8_L
00000171   UCSCTL8_H
00000180   SYSCTL
00000180   SYSCTL_L
00000181   SYSCTL_H
00000182   SYSBSLC
00000182   SYSBSLC_L
00000183   SYSBSLC_H
00000186   SYSJMBC
00000186   SYSJMBC_L
00000187   SYSJMBC_H
00000188   SYSJMBI0
00000188   SYSJMBI0_L
00000189   SYSJMBI0_H
0000018a   SYSJMBI1
0000018a   SYSJMBI1_L
0000018b   SYSJMBI1_H
0000018c   SYSJMBO0
0000018c   SYSJMBO0_L
0000018d   SYSJMBO0_H
0000018e   SYSJMBO1
0000018e   SYSJMBO1_L
0000018f   SYSJMBO1_H
00000198   SYSBERRIV
00000198   SYSBERRIV_L
00000199   SYSBERRIV_H
0000019a   SYSUNIV
0000019a   SYSUNIV_L
0000019b   SYSUNIV_H
0000019c   SYSSNIV
0000019c   SYSSNIV_L
0000019d   SYSSNIV_H
0000019e   SYSRSTIV
0000019e   SYSRSTIV_L
0000019f   SYSRSTIV_H
000001b0   REFCTL0
000001b0   REFCTL0_L
000001b1   REFCTL0_H
000001c0   PMAPKEYID
000001c0   PMAPKEYID_L
000001c1   PMAPKEYID_H
000001c2   PMAPCTL
000001c2   PMAPCTL_L
000001c3   PMAPCTL_H
000001c8   P1MAP01
000001c8   P1MAP01_L
000001c9   P1MAP01_H
000001ca   P1MAP23
000001ca   P1MAP23_L
000001cb   P1MAP23_H
000001cc   P1MAP45
000001cc   P1MAP45_L
000001cd   P1MAP45_H
000001ce   P1MAP67
000001ce   P1MAP67_L
000001cf   P1MAP67_H
000001d0   P2MAP01
000001d0   P2MAP01_L
000001d1   P2MAP01_H
000001d2   P2MAP23
000001d2   P2MAP23_L
000001d3   P2MAP23_H
000001d4   P2MAP45
000001d4   P2MAP45_L
000001d5   P2MAP45_H
000001d6   P2MAP67
000001d6   P2MAP67_L
000001d7   P2MAP67_H
000001d8   P3MAP01
000001d8   P3MAP01_L
000001d9   P3MAP01_H
000001da   P3MAP23
000001da   P3MAP23_L
000001db   P3MAP23_H
000001dc   P3MAP45
000001dc   P3MAP45_L
000001dd   P3MAP45_H
000001de   P3MAP67
000001de   P3MAP67_L
000001df   P3MAP67_H
00000200   PAIN
00000200   PAIN_L
00000201   PAIN_H
00000202   PAOUT
00000202   PAOUT_L
00000203   PAOUT_H
00000204   PADIR
00000204   PADIR_L
00000205   PADIR_H
00000206   PAREN
00000206   PAREN_L
00000207   PAREN_H
00000208   PADS
00000208   PADS_L
00000209   PADS_H
0000020a   PASEL
0000020a   PASEL_L
0000020b   PASEL_H
0000020e   P1IV
00000218   PAIES
00000218   PAIES_L
00000219   PAIES_H
0000021a   PAIE
0000021a   PAIE_L
0000021b   PAIE_H
0000021c   PAIFG
0000021c   PAIFG_L
0000021d   PAIFG_H
0000021e   P2IV
00000220   PBIN
00000220   PBIN_L
00000221   PBIN_H
00000222   PBOUT
00000222   PBOUT_L
00000223   PBOUT_H
00000224   PBDIR
00000224   PBDIR_L
00000225   PBDIR_H
00000226   PBREN
00000226   PBREN_L
00000227   PBREN_H
00000228   PBDS
00000228   PBDS_L
00000229   PBDS_H
0000022a   PBSEL
0000022a   PBSEL_L
0000022b   PBSEL_H
00000240   PCIN
00000240   PCIN_L
00000241   PCIN_H
00000242   PCOUT
00000242   PCOUT_L
00000243   PCOUT_H
00000244   PCDIR
00000244   PCDIR_L
00000245   PCDIR_H
00000246   PCREN
00000246   PCREN_L
00000247   PCREN_H
00000248   PCDS
00000248   PCDS_L
00000249   PCDS_H
0000024a   PCSEL
0000024a   PCSEL_L
0000024b   PCSEL_H
00000320   PJIN
00000320   PJIN_L
00000321   PJIN_H
00000322   PJOUT
00000322   PJOUT_L
00000323   PJOUT_H
00000324   PJDIR
00000324   PJDIR_L
00000325   PJDIR_H
00000326   PJREN
00000326   PJREN_L
00000327   PJREN_H
00000328   PJDS
00000328   PJDS_L
00000329   PJDS_H
00000340   TA0CTL
00000340   TA0CTL_L
00000341   TA0CTL_H
00000342   TA0CCTL0
00000342   TA0CCTL0_L
00000343   TA0CCTL0_H
00000344   TA0CCTL1
00000344   TA0CCTL1_L
00000345   TA0CCTL1_H
00000346   TA0CCTL2
00000346   TA0CCTL2_L
00000347   TA0CCTL2_H
00000348   TA0CCTL3
00000348   TA0CCTL3_L
00000349   TA0CCTL3_H
0000034a   TA0CCTL4
0000034a   TA0CCTL4_L
0000034b   TA0CCTL4_H
00000350   TA0R
00000350   TA0R_L
00000351   TA0R_H
00000352   TA0CCR0
00000352   TA0CCR0_L
00000353   TA0CCR0_H
00000354   TA0CCR1
00000354   TA0CCR1_L
00000355   TA0CCR1_H
00000356   TA0CCR2
00000356   TA0CCR2_L
00000357   TA0CCR2_H
00000358   TA0CCR3
00000358   TA0CCR3_L
00000359   TA0CCR3_H
0000035a   TA0CCR4
0000035a   TA0CCR4_L
0000035b   TA0CCR4_H
00000360   TA0EX0
00000360   TA0EX0_L
00000361   TA0EX0_H
0000036e   TA0IV
0000036e   TA0IV_L
0000036f   TA0IV_H
00000380   TA1CTL
00000380   TA1CTL_L
00000381   TA1CTL_H
00000382   TA1CCTL0
00000382   TA1CCTL0_L
00000383   TA1CCTL0_H
00000384   TA1CCTL1
00000384   TA1CCTL1_L
00000385   TA1CCTL1_H
00000386   TA1CCTL2
00000386   TA1CCTL2_L
00000387   TA1CCTL2_H
00000390   TA1R
00000390   TA1R_L
00000391   TA1R_H
00000392   TA1CCR0
00000392   TA1CCR0_L
00000393   TA1CCR0_H
00000394   TA1CCR1
00000394   TA1CCR1_L
00000395   TA1CCR1_H
00000396   TA1CCR2
00000396   TA1CCR2_L
00000397   TA1CCR2_H
000003a0   TA1EX0
000003a0   TA1EX0_L
000003a1   TA1EX0_H
000003ae   TA1IV
000003ae   TA1IV_L
000003af   TA1IV_H
000004a0   RTCCTL01
000004a0   RTCCTL01_L
000004a1   RTCCTL01_H
000004a2   RTCCTL23
000004a2   RTCCTL23_L
000004a3   RTCCTL23_H
000004a8   RTCPS0CTL
000004a8   RTCPS0CTL_L
000004a9   RTCPS0CTL_H
000004aa   RTCPS1CTL
000004aa   RTCPS1CTL_L
000004ab   RTCPS1CTL_H
000004ac   RTCPS
000004ac   RTCPS_L
000004ad   RTCPS_H
000004ae   RTCIV
000004b0   RTCTIM0
000004b0   RTCTIM0_L
000004b1   RTCTIM0_H
000004b2   RTCTIM1
000004b2   RTCTIM1_L
000004b3   RTCTIM1_H
000004b4   RTCDATE
000004b4   RTCDATE_L
000004b5   RTCDATE_H
000004b6   RTCYEAR
000004b6   RTCYEAR_L
000004b7   RTCYEAR_H
000004b8   RTCAMINHR
000004b8   RTCAMINHR_L
000004b9   RTCAMINHR_H
000004ba   RTCADOWDAY
000004ba   RTCADOWDAY_L
000004bb   RTCADOWDAY_H
000004c0   MPY
000004c0   MPY_L
000004c1   MPY_H
000004c2   MPYS
000004c2   MPYS_L
000004c3   MPYS_H
000004c4   MAC
000004c4   MAC_L
000004c5   MAC_H
000004c6   MACS
000004c6   MACS_L
000004c7   MACS_H
000004c8   OP2
000004c8   OP2_L
000004c9   OP2_H
000004ca   RESLO
000004ca   RESLO_L
000004cb   RESLO_H
000004cc   RESHI
000004cc   RESHI_L
000004cd   RESHI_H
000004ce   SUMEXT
000004ce   SUMEXT_L
000004cf   SUMEXT_H
000004d0   MPY32L
000004d0   MPY32L_L
000004d1   MPY32L_H
000004d2   MPY32H
000004d2   MPY32H_L
000004d3   MPY32H_H
000004d4   MPYS32L
000004d4   MPYS32L_L
000004d5   MPYS32L_H
000004d6   MPYS32H
000004d6   MPYS32H_L
000004d7   MPYS32H_H
000004d8   MAC32L
000004d8   MAC32L_L
000004d9   MAC32L_H
000004da   MAC32H
000004da   MAC32H_L
000004db   MAC32H_H
000004dc   MACS32L
000004dc   MACS32L_L
000004dd   MACS32L_H
000004de   MACS32H
000004de   MACS32H_L
000004df   MACS32H_H
000004e0   OP2L
000004e0   OP2L_L
000004e1   OP2L_H
000004e2   OP2H
000004e2   OP2H_L
000004e3   OP2H_H
000004e4   RES0
000004e4   RES0_L
000004e5   RES0_H
000004e6   RES1
000004e6   RES1_L
000004e7   RES1_H
000004e8   RES2
000004e8   RES2_L
000004e9   RES2_H
000004ea   RES3
000004ea   RES3_L
000004eb   RES3_H
000004ec   MPY32CTL0
000004ec   MPY32CTL0_L
000004ed   MPY32CTL0_H
00000500   DMACTL0
00000500   DMACTL0_L
00000501   DMACTL0_H
00000502   DMACTL1
00000502   DMACTL1_L
00000503   DMACTL1_H
00000504   DMACTL2
00000504   DMACTL2_L
00000505   DMACTL2_H
00000506   DMACTL3
00000506   DMACTL3_L
00000507   DMACTL3_H
00000508   DMACTL4
00000508   DMACTL4_L
00000509   DMACTL4_H
0000050e   DMAIV
0000050e   DMAIV_L
0000050f   DMAIV_H
00000510   DMA0CTL
00000510   DMA0CTL_L
00000511   DMA0CTL_H
00000512   DMA0SA
00000512   DMA0SAL
00000516   DMA0DA
00000516   DMA0DAL
0000051a   DMA0SZ
00000520   DMA1CTL
00000520   DMA1CTL_L
00000521   DMA1CTL_H
00000522   DMA1SA
00000522   DMA1SAL
00000526   DMA1DA
00000526   DMA1DAL
0000052a   DMA1SZ
00000530   DMA2CTL
00000530   DMA2CTL_L
00000531   DMA2CTL_H
00000532   DMA2SA
00000532   DMA2SAL
00000536   DMA2DA
00000536   DMA2DAL
0000053a   DMA2SZ
000005c0   UCA0CTLW0
000005c0   UCA0CTLW0_L
000005c1   UCA0CTLW0_H
000005c6   UCA0BRW
000005c6   UCA0BRW_L
000005c7   UCA0BRW_H
000005c8   UCA0MCTL
000005ca   UCA0STAT
000005cc   UCA0RXBUF
000005ce   UCA0TXBUF
000005d0   UCA0ABCTL
000005d2   UCA0IRCTL
000005d2   UCA0IRCTL_L
000005d3   UCA0IRCTL_H
000005dc   UCA0ICTL
000005dc   UCA0ICTL_L
000005dd   UCA0ICTL_H
000005de   UCA0IV
000005e0   UCB0CTLW0
000005e0   UCB0CTLW0_L
000005e1   UCB0CTLW0_H
000005e6   UCB0BRW
000005e6   UCB0BRW_L
000005e7   UCB0BRW_H
000005ea   UCB0STAT
000005ec   UCB0RXBUF
000005ee   UCB0TXBUF
000005f0   UCB0I2COA
000005f0   UCB0I2COA_L
000005f1   UCB0I2COA_H
000005f2   UCB0I2CSA
000005f2   UCB0I2CSA_L
000005f3   UCB0I2CSA_H
000005fc   UCB0ICTL
000005fc   UCB0ICTL_L
000005fd   UCB0ICTL_H
000005fe   UCB0IV
00000700   ADC12CTL0
00000700   ADC12CTL0_L
00000701   ADC12CTL0_H
00000702   ADC12CTL1
00000702   ADC12CTL1_L
00000703   ADC12CTL1_H
00000704   ADC12CTL2
00000704   ADC12CTL2_L
00000705   ADC12CTL2_H
0000070a   ADC12IFG
0000070a   ADC12IFG_L
0000070b   ADC12IFG_H
0000070c   ADC12IE
0000070c   ADC12IE_L
0000070d   ADC12IE_H
0000070e   ADC12IV
0000070e   ADC12IV_L
0000070f   ADC12IV_H
00000710   ADC12MCTL0
00000711   ADC12MCTL1
00000712   ADC12MCTL2
00000713   ADC12MCTL3
00000714   ADC12MCTL4
00000715   ADC12MCTL5
00000716   ADC12MCTL6
00000717   ADC12MCTL7
00000718   ADC12MCTL8
00000719   ADC12MCTL9
0000071a   ADC12MCTL10
0000071b   ADC12MCTL11
0000071c   ADC12MCTL12
0000071d   ADC12MCTL13
0000071e   ADC12MCTL14
0000071f   ADC12MCTL15
00000720   ADC12MEM0
00000720   ADC12MEM0_L
00000721   ADC12MEM0_H
00000722   ADC12MEM1
00000722   ADC12MEM1_L
00000723   ADC12MEM1_H
00000724   ADC12MEM2
00000724   ADC12MEM2_L
00000725   ADC12MEM2_H
00000726   ADC12MEM3
00000726   ADC12MEM3_L
00000727   ADC12MEM3_H
00000728   ADC12MEM4
00000728   ADC12MEM4_L
00000729   ADC12MEM4_H
0000072a   ADC12MEM5
0000072a   ADC12MEM5_L
0000072b   ADC12MEM5_H
0000072c   ADC12MEM6
0000072c   ADC12MEM6_L
0000072d   ADC12MEM6_H
0000072e   ADC12MEM7
0000072e   ADC12MEM7_L
0000072f   ADC12MEM7_H
00000730   ADC12MEM8
00000730   ADC12MEM8_L
00000731   ADC12MEM8_H
00000732   ADC12MEM9
00000732   ADC12MEM9_L
00000733   ADC12MEM9_H
00000734   ADC12MEM10
00000734   ADC12MEM10_L
00000735   ADC12MEM10_H
00000736   ADC12MEM11
00000736   ADC12MEM11_L
00000737   ADC12MEM11_H
00000738   ADC12MEM12
00000738   ADC12MEM12_L
00000739   ADC12MEM12_H
0000073a   ADC12MEM13
0000073a   ADC12MEM13_L
0000073b   ADC12MEM13_H
0000073c   ADC12MEM14
0000073c   ADC12MEM14_L
0000073d   ADC12MEM14_H
0000073e   ADC12MEM15
0000073e   ADC12MEM15_L
0000073f   ADC12MEM15_H
000008c0   CBCTL0
000008c0   CBCTL0_L
000008c1   CBCTL0_H
000008c2   CBCTL1
000008c2   CBCTL1_L
000008c3   CBCTL1_H
000008c4   CBCTL2
000008c4   CBCTL2_L
000008c5   CBCTL2_H
000008c6   CBCTL3
000008c6   CBCTL3_L
000008c7   CBCTL3_H
000008cc   CBINT
000008cc   CBINT_L
000008cd   CBINT_H
000008ce   CBIV
000009c0   AESACTL0
000009c0   AESACTL0_L
000009c1   AESACTL0_H
000009c4   AESASTAT
000009c4   AESASTAT_L
000009c5   AESASTAT_H
000009c6   AESAKEY
000009c6   AESAKEY_L
000009c7   AESAKEY_H
000009c8   AESADIN
000009c8   AESADIN_L
000009c9   AESADIN_H
000009ca   AESADOUT
000009ca   AESADOUT_L
000009cb   AESADOUT_H
00000a00   LCDBCTL0
00000a00   LCDBCTL0_L
00000a01   LCDBCTL0_H
00000a02   LCDBCTL1
00000a02   LCDBCTL1_L
00000a03   LCDBCTL1_H
00000a04   LCDBBLKCTL
00000a04   LCDBBLKCTL_L
00000a05   LCDBBLKCTL_H
00000a06   LCDBMEMCTL
00000a06   LCDBMEMCTL_L
00000a07   LCDBMEMCTL_H
00000a08   LCDBVCTL
00000a08   LCDBVCTL_L
00000a09   LCDBVCTL_H
00000a0a   LCDBPCTL0
00000a0a   LCDBPCTL0_L
00000a0b   LCDBPCTL0_H
00000a0c   LCDBPCTL1
00000a0c   LCDBPCTL1_L
00000a0d   LCDBPCTL1_H
00000a0e   LCDBPCTL2
00000a0e   LCDBPCTL2_L
00000a0f   LCDBPCTL2_H
00000a10   LCDBPCTL3
00000a10   LCDBPCTL3_L
00000a11   LCDBPCTL3_H
00000a12   LCDBCPCTL
00000a12   LCDBCPCTL_L
00000a13   LCDBCPCTL_H
00000a1e   LCDBIV
00000a20   LCDM1
00000a21   LCDM2
00000a22   LCDM3
00000a23   LCDM4
00000a24   LCDM5
00000a25   LCDM6
00000a26   LCDM7
00000a27   LCDM8
00000a28   LCDM9
00000a29   LCDM10
00000a2a   LCDM11
00000a2b   LCDM12
00000a2c   LCDM13
00000a2d   LCDM14
00000a2e   LCDM15
00000a2f   LCDM16
00000a30   LCDM17
00000a31   LCDM18
00000a32   LCDM19
00000a33   LCDM20
00000a34   LCDM21
00000a35   LCDM22
00000a36   LCDM23
00000a37   LCDM24
00000a40   LCDBM1
00000a41   LCDBM2
00000a42   LCDBM3
00000a43   LCDBM4
00000a44   LCDBM5
00000a45   LCDBM6
00000a46   LCDBM7
00000a47   LCDBM8
00000a48   LCDBM9
00000a49   LCDBM10
00000a4a   LCDBM11
00000a4b   LCDBM12
00000a4c   LCDBM13
00000a4d   LCDBM14
00000a4e   LCDBM15
00000a4f   LCDBM16
00000a50   LCDBM17
00000a51   LCDBM18
00000a52   LCDBM19
00000a53   LCDBM20
00000a54   LCDBM21
00000a55   LCDBM22
00000a56   LCDBM23
00000a57   LCDBM24
00000f00   RF1AIFCTL0
00000f00   RF1AIFCTL0_L
00000f01   RF1AIFCTL0_H
00000f02   RF1AIFCTL1
00000f02   RF1AIFCTL1_L
00000f03   RF1AIFCTL1_H
00000f04   RF1AIFCTL2
00000f04   RF1AIFCTL2_L
00000f05   RF1AIFCTL2_H
00000f06   RF1AIFERR
00000f06   RF1AIFERR_L
00000f07   RF1AIFERR_H
00000f0c   RF1AIFERRV
00000f0c   RF1AIFERRV_L
00000f0d   RF1AIFERRV_H
00000f0e   RF1AIFIV
00000f0e   RF1AIFIV_L
00000f0f   RF1AIFIV_H
00000f10   RF1AINSTRW
00000f10   RF1AINSTRW_L
00000f11   RF1AINSTRW_H
00000f12   RF1AINSTR1W
00000f12   RF1AINSTR1W_L
00000f13   RF1AINSTR1W_H
00000f14   RF1AINSTR2W
00000f14   RF1AINSTR2W_L
00000f15   RF1AINSTR2W_H
00000f16   RF1ADINW
00000f16   RF1ADINW_L
00000f17   RF1ADINW_H
00000f20   RF1ASTAT0W
00000f20   RF1ASTAT0W_L
00000f21   RF1ASTAT0W_H
00000f22   RF1ASTAT1W
00000f22   RF1ASTAT1W_L
00000f23   RF1ASTAT1W_H
00000f24   RF1ASTAT2W
00000f24   RF1ASTAT2W_L
00000f25   RF1ASTAT2W_H
00000f28   RF1ADOUT0W
00000f28   RF1ADOUT0W_L
00000f29   RF1ADOUT0W_H
00000f2a   RF1ADOUT1W
00000f2a   RF1ADOUT1W_L
00000f2b   RF1ADOUT1W_H
00000f2c   RF1ADOUT2W
00000f2c   RF1ADOUT2W_L
00000f2d   RF1ADOUT2W_H
00000f30   RF1AIN
00000f30   RF1AIN_L
00000f31   RF1AIN_H
00000f32   RF1AIFG
00000f32   RF1AIFG_L
00000f33   RF1AIFG_H
00000f34   RF1AIES
00000f34   RF1AIES_L
00000f35   RF1AIES_H
00000f36   RF1AIE
00000f36   RF1AIE_L
00000f37   RF1AIE_H
00000f38   RF1AIV
00000f38   RF1AIV_L
00000f39   RF1AIV_H
00000f3c   RF1ARXFIFO
00000f3c   RF1ARXFIFO_L
00000f3d   RF1ARXFIFO_H
00000f3e   RF1ATXFIFO
00000f3e   RF1ATXFIFO_L
00000f3f   RF1ATXFIFO_H
00001c00   .bss
00001c00   __bss__
00001c8c   sDatalog
00001d14   segments_lcdmem
00001d68   sRFsmpl
00001d6c   simpliciti_flag
00001d6e   simpliciti_data
00001d8e   simpliciti_ed_address
00001d92   simpliciti_reply_count
00001d93   burst_mode
00001d94   burst_start
00001d96   burst_end
00001d98   burst_packet
00001daa   burst_packet_index
00001dac   flash_ptr
00001dae   p
00001df2   ps_ok
00001e30   method
00001e4e   BRRX__TXCB_t
00001e6a   sys
00001e6c   request
00001e6e   message
00001e70   bike
00001e72   rf_frequoffset
00001e74   fptr_lcd_function_line1
00001e78   fptr_lcd_function_line2
00001e7c   sAlt
00001e8c   sTime
00001ea0   BRRX__PowerdownDelay_u8
00001ea1   BRRX__SignalLevelReduction
00001ea2   BRRX__MaxSearchTries_u8
00001ea3   BRRX__SearchRatio_u8
00001ea4   BRRX__TestMode_u8
00001ea6   BRRX__PacketBits_t
00001eb0   sBlueRobin
00001eba   display
00001ebc   itoa_str
00001ee1   sInit_done
00001eec   BRRX__NextEventTime_u16
00001eee   BRRX__NextEndTime_u16
00001ef0   BRRX__NextFrequency_u8
00001ef1   BRRX__NextFrequencyOffset_s8
00001ef2   BRRX__TimerState_t
00001ef4   sBuzzer
00001efc   _lock
00001f00   _unlock
00001f04   _cleanup_ptr
00001f08   _dtors_ptr
00001f0c   button
00001f0e   sButton
00001f13   as_ok
00001f14   fptr_Timer0_A3_function
00001f18   sTimer
00001f1a   change_menu
00001f20   brrx_packet_end_cap_value
00001f22   sAccel
00001f28   sBatt
00001f2e   sDate
00001f34   BRRX__StatusFlags_t
00001f36   BRRX__CurrentPacketTime_u16
00001f38   BRRX__CurrentSignalLevel_u8
00001f3e   ptrMenu_L1
00001f40   ptrMenu_L2
00001f42   speed_flag
00001f44   speed
00001f46   adc12_result
00001f48   adc12_data_ready
00001f4d   __end__
00001f4d   end
00002bac   _stack
00002bfc   __STACK_END
00009e00   .text
00009e00   __text__
00009e00   conv_pa_to_meter
0000a0ae   BRRX__Scheduler_v
0000a332   update_pressure_table
0000a518   display_update
0000a7d8   display_time
0000a91c   PORT2_ISR
0000aa4c   __fs_sub
0000aa52   __fs_add
0000ab7c   datalog_sm
0000ae8e   do_datalog
0000af80   display_chars
0000b068   TIMER0_A0_ISR
0000b14e   display_speed
0000b230   nwk_allocateLocalRxPort
0000b304   init_application
0000b3ce   itoa
0000b496   MRFI_Transmit
0000b612   __fs_mpy
0000b6c8   datalog_write_buffer
0000b776   do_altitude_measurement
0000b822   read_calibration_values
0000b8ce   ps_twi_sda
0000b96e   Strobe
0000ba04   mrfiRadioInterfaceCmdStrobe
0000ba94   nwk_buildFrame
0000bb24   __fs_div
0000bc3e   nwk_isConnectionValid
0000bdd6   nwk_sendAckReply
0000be56   BRRX_RadioReceive_v
0000bed4   ps_init
0000bf4c   nwk_QfindSlot
0000bfc2   battery_measurement
0000c036   display_char
0000c0a8   ps_read_register
0000c184   init_global_variables
0000c1ee   adc12_single_conversion
0000c2be   ps_get_pa
0000c324   mrfiRadioInterfaceReadRxFifo
0000c388   MRFI_RadioIsr
0000c3ea   display_distance
0000c44c   start_altitude_measurement
0000c4ac   write_lcd_mem
0000c50c   BRRX_PacketEndTimerTask_v
0000c56a   clear_line
0000c624   ps_write_register
0000c67e   BRRX__StartNewSearch_v
0000c6d6   __divul
0000c6d6   __remul
0000c72e   TIMER0_A1_5_ISR
0000c782   ps_twi_read
0000c876   ps_get_temp
0000c8c2   __fs_toul
0000c90e   __fs_cmp
0000c958   toggle_buzzer
0000c9a2   BR__CalcRandomTimeOffset_u16
0000c9ea   clock_tick
0000ca32   SetVCoreUp
0000ca78   _auto_init
0000cabe   mrfiRadioInterfaceReadReg
0000cb04   __fs_tou
0000cb4a   start_buzzer
0000cb90   ReadBurstReg
0000cbd4   reset_altitude_measurement
0000cc9e   flash_erase_page
0000cce0   ps_twi_write
0000cd22   BRRX__NewInfo_v
0000cd62   nwk_isValidReply
0000cda2   __divli
0000cda2   __remli
0000cde2   BRRX__DecodePacket_u8
0000ce20   Timer0_A4_Delay
0000ce5e   L_LSL_15
0000ce62   L_LSL_14
0000ce66   L_LSL_13
0000ce6a   L_LSL_12
0000ce6e   L_LSL_11
0000ce72   L_LSL_10
0000ce76   L_LSL_9
0000ce7a   L_LSL_8
0000ce7e   L_LSL_7
0000ce82   L_LSL_6
0000ce86   L_LSL_5
0000ce8a   L_LSL_4
0000ce8e   L_LSL_3
0000ce92   L_LSL_2
0000ce96   L_LSL_1
0000ce9c   L_LSR_15
0000cea0   L_LSR_14
0000cea4   L_LSR_13
0000cea8   L_LSR_12
0000ceac   L_LSR_11
0000ceb0   L_LSR_10
0000ceb4   L_LSR_9
0000ceb8   L_LSR_8
0000cebc   L_LSR_7
0000cec0   L_LSR_6
0000cec4   L_LSR_5
0000cec8   L_LSR_4
0000cecc   L_LSR_3
0000ced0   L_LSR_2
0000ced4   L_LSR_1
0000ceda   nwk_getNextConnection
0000cf18   stop_bluerobin
0000cf56   BRRX_TimerTask_v
0000cf92   nwk_findPeer
0000cfce   nwk_isLinkDuplicate
0000d044   nwk_processMgmt
0000d07e   WriteSingleReg
0000d0b6   radio_ISR
0000d126   reset_datalog
0000d15c   __fs_itof
0000d192   BR__CalcCRC_u8
0000d1c6   BSP_Delay
0000d22e   mrfiRadioInterfaceWriteReg
0000d262   mrfiRadioInterfaceWriteTxFifo
0000d296   BRRX_RadioStop_v
0000d2c8   main
0000d2fa   radio_reset
0000d32c   __fs_ultof
0000d35e   nwk_sendFrame
0000d3bc   as_init
0000d416   datalog_add_to_buffer
0000d442   nwk_QadjustOrder
0000d46e   __divi
0000d46e   __remi
0000d49a   wakeup_event
0000d4f0   _c_int00
0000d4f0   _c_int00_noexit
0000d51a   flash_write
0000d544   lcd_init
0000d56e   stop_altitude_measurement
0000d5c0   nwk_processPing
0000d5e8   SetVCoreDown
0000d634   init_buttons
0000d65a   init_pressure_table
0000d680   nwk_processLink
0000d6a6   process_requests
0000d6cc   BRRX_GetState_t
0000d714   SetVCore
0000d738   memcmp
0000d75c   __fs_utof
0000d780   get_bluerobin_data
0000d7a2   reset_clock
0000d7c4   __mpyl_f5hw
0000d7e6   MRFI_RxCompleteISR
0000d806   is_bluerobin_flash_write_window
0000d826   memmove
0000d846   stop_buzzer
0000d8a2   display_symbol
0000d8c0   nwk_processJoin
0000d8f6   ADC12ISR
0000d910   Timer0_A3_Start
0000d928   convert_speed_to_km_h
0000d940   MRFI_RandomByte
0000d96c   ReadSingleReg
0000d982   reset_bluerobin
0000d998   __divu
0000d998   __remu
0000d9ae   __mpyi_f5hw
0000d9c4   Timer0_Init
0000d9d8   countdown_buzzer
0000d9ec   memset
0000da00   reset_date
0000da14   BlueRobin_RadioISR_v
0000da26   memcpy
0000da38   nwk_getMyAddress
0000da4a   close_radio
0000da5a   radio_powerdown
0000da6a   sx_time
0000da7a   reset_batt_measurement
0000da88   BRRX__GetCurrentTime_u16
0000da94   MRFI_PostKillSem
0000daa0   MRFI_Receive
0000dab8   idle_loop
0000dac4   is_bluerobin
0000dad0   is_bluerobin_searching
0000dadc   is_rf
0000dae8   nwk_getNumObjectFromMsg
0000daf4   ps_start
0000db00   switch_seg
0000db0c   BRRX__StopTimer_v
0000db16   ps_stop
0000db20   reset_buzzer
0000db2a   update_date
0000db34   update_time
0000db3e   BRRX_GetFS_Offset_s8
0000db46   Timer0_A3_Stop
0000db4e   is_datalog
0000db56   to_lpm
0000db5e   BRRX_GetHeartRate_u8
0000db64   BRRX_Stop_v
0000db6a   BRRX__CallTimer_v
0000db70   convert_speed_to_mi_h
0000db76   is_altitude_measurement
0000db7c   nwk_freeConnection
0000db82   nwk_getMyRxType
0000db88   reset_rf
0000db8e   _system_pre_init
0000db92   C$$EXIT
0000db92   abort
0000db96   nwk_getProtocolVersion
0000db9a   nwk_processFreq
0000db9e   nwk_processSecurity
0000dba2   twi_delay
0000dba6   _nop
0000dba8   dummy
0000dbaa   reset_acceleration
0000dbac   sx_distance
0000dbae   sx_speed
0000dbb0   __etext__
0000dbb0   etext
0000dbb0   itoa_conversion_table
0000ddd0   RandomValue_u8
0000ded0   menu_L1_Speed
0000dee2   menu_L2_Time
0000def4   menu_L2_Distance
0000df32   lcd_font
0000df5e   segments_bitmask
0000df88   h0
0000dfaa   p0
0000e026   BRRX__First_TXCB_t
0000e028   BRRX__Last_TXCB_t
0000e02a   mrfiBroadcastAddr
0000e02e   __cinit__
0000e02e   cinit
0000fffe   _reset_vector
ffffffff   __binit__
ffffffff   __c_args__
ffffffff   __pinit__
ffffffff   binit
ffffffff   pinit

[1065 symbols]
